target datalayout = "e-m:e-p270:32:32-p271:32:32-p272:64:64-i64:64-i128:128-f80:128-n8:16:32:64-S128"
target triple = "x86_64-pc-linux-gnu"

%struct.ec_method_st = type { i32, i32, ptr, ptr, ptr, ptr, ptr, ptr, ptr, ptr, ptr, ptr, ptr, ptr, ptr, ptr, ptr, ptr, ptr, ptr, ptr, ptr, ptr, ptr, ptr, ptr, ptr, ptr, ptr, ptr, ptr, ptr, ptr, ptr, ptr, ptr, ptr, ptr, ptr, ptr, ptr, ptr, ptr, ptr, ptr, ptr, ptr, ptr, ptr, ptr, ptr, ptr, ptr, ptr, ptr, ptr, ptr }
%struct.ec_group_st = type { ptr, ptr, ptr, ptr, i32, i32, i32, i32, ptr, i64, ptr, [6 x i32], ptr, ptr, i32, ptr, ptr, ptr, ptr, i32, %union.anon, ptr, ptr }
%union.anon = type { ptr }
%struct.ec_point_st = type { ptr, i32, ptr, ptr, ptr, i32 }

@.str = private unnamed_addr constant [32 x i8] c"../openssl/crypto/ec/ecp_smpl.c\00", align 1
@__func__.ossl_ec_GFp_simple_blind_coordinates = private unnamed_addr constant [37 x i8] c"ossl_ec_GFp_simple_blind_coordinates\00", align 1

; Function Attrs: nounwind uwtable
define i32 @ossl_ec_GFp_simple_blind_coordinates(ptr noundef %0, ptr noundef %1, ptr noundef %2) #0 {
  %4 = alloca ptr, align 8
  %5 = alloca ptr, align 8
  %6 = alloca ptr, align 8
  %7 = alloca i32, align 4
  %8 = alloca ptr, align 8
  %9 = alloca ptr, align 8
  store ptr %0, ptr %4, align 8, !tbaa !3
  store ptr %1, ptr %5, align 8, !tbaa !30
  store ptr %2, ptr %6, align 8, !tbaa !22
  call void @llvm.lifetime.start.p0(i64 4, ptr %7) #3
  store i32 0, ptr %7, align 4, !tbaa !24
  call void @llvm.lifetime.start.p0(i64 8, ptr %8) #3
  store ptr null, ptr %8, align 8, !tbaa !21
  call void @llvm.lifetime.start.p0(i64 8, ptr %9) #3
  store ptr null, ptr %9, align 8, !tbaa !21
  %10 = load ptr, ptr %6, align 8, !tbaa !22
  call void @BN_CTX_start(ptr noundef %10)
  %11 = load ptr, ptr %6, align 8, !tbaa !22
  %12 = call ptr @BN_CTX_get(ptr noundef %11)
  store ptr %12, ptr %8, align 8, !tbaa !21
  %13 = load ptr, ptr %6, align 8, !tbaa !22
  %14 = call ptr @BN_CTX_get(ptr noundef %13)
  store ptr %14, ptr %9, align 8, !tbaa !21
  %15 = load ptr, ptr %9, align 8, !tbaa !21
  %16 = icmp eq ptr %15, null
  br i1 %16, label %17, label %18

17:                                               ; preds = %3
  call void @ERR_new()
  call void @ERR_set_debug(ptr noundef @.str, i32 noundef 1441, ptr noundef @__func__.ossl_ec_GFp_simple_blind_coordinates)
  call void (i32, i32, ptr, ...) @ERR_set_error(i32 noundef 16, i32 noundef 524291, ptr noundef null)
  br label %135

18:                                               ; preds = %3
  br label %19

19:                                               ; preds = %32, %18
  %20 = call i32 @ERR_set_mark()
  %21 = load ptr, ptr %8, align 8, !tbaa !21
  %22 = load ptr, ptr %4, align 8, !tbaa !3
  %23 = getelementptr inbounds nuw %struct.ec_group_st, ptr %22, i32 0, i32 10
  %24 = load ptr, ptr %23, align 8, !tbaa !8
  %25 = load ptr, ptr %6, align 8, !tbaa !22
  %26 = call i32 @BN_priv_rand_range_ex(ptr noundef %21, ptr noundef %24, i32 noundef 0, ptr noundef %25)
  store i32 %26, ptr %7, align 4, !tbaa !24
  %27 = call i32 @ERR_pop_to_mark()
  %28 = load i32, ptr %7, align 4, !tbaa !24
  %29 = icmp eq i32 %28, 0
  br i1 %29, label %30, label %31

30:                                               ; preds = %19
  store i32 1, ptr %7, align 4, !tbaa !24
  br label %135

31:                                               ; preds = %19
  br label %32

32:                                               ; preds = %31
  %33 = load ptr, ptr %8, align 8, !tbaa !21
  %34 = call i32 @BN_is_zero(ptr noundef %33)
  %35 = icmp ne i32 %34, 0
  br i1 %35, label %19, label %36, !llvm.loop !54

36:                                               ; preds = %32
  %37 = load ptr, ptr %4, align 8, !tbaa !3
  %38 = getelementptr inbounds nuw %struct.ec_group_st, ptr %37, i32 0, i32 0
  %39 = load ptr, ptr %38, align 8, !tbaa !26
  %40 = getelementptr inbounds nuw %struct.ec_method_st, ptr %39, i32 0, i32 36
  %41 = load ptr, ptr %40, align 8, !tbaa !27
  %42 = icmp ne ptr %41, null
  br i1 %42, label %43, label %55

43:                                               ; preds = %36
  %44 = load ptr, ptr %4, align 8, !tbaa !3
  %45 = getelementptr inbounds nuw %struct.ec_group_st, ptr %44, i32 0, i32 0
  %46 = load ptr, ptr %45, align 8, !tbaa !26
  %47 = getelementptr inbounds nuw %struct.ec_method_st, ptr %46, i32 0, i32 36
  %48 = load ptr, ptr %47, align 8, !tbaa !27
  %49 = load ptr, ptr %4, align 8, !tbaa !3
  %50 = load ptr, ptr %8, align 8, !tbaa !21
  %51 = load ptr, ptr %8, align 8, !tbaa !21
  %52 = load ptr, ptr %6, align 8, !tbaa !22
  %53 = call i32 %48(ptr noundef %49, ptr noundef %50, ptr noundef %51, ptr noundef %52)
  %54 = icmp ne i32 %53, 0
  br i1 %54, label %55, label %131

55:                                               ; preds = %43, %36
  %56 = load ptr, ptr %4, align 8, !tbaa !3
  %57 = getelementptr inbounds nuw %struct.ec_group_st, ptr %56, i32 0, i32 0
  %58 = load ptr, ptr %57, align 8, !tbaa !26
  %59 = getelementptr inbounds nuw %struct.ec_method_st, ptr %58, i32 0, i32 32
  %60 = load ptr, ptr %59, align 8, !tbaa !39
  %61 = load ptr, ptr %4, align 8, !tbaa !3
  %62 = load ptr, ptr %5, align 8, !tbaa !30
  %63 = getelementptr inbounds nuw %struct.ec_point_st, ptr %62, i32 0, i32 4
  %64 = load ptr, ptr %63, align 8, !tbaa !34
  %65 = load ptr, ptr %5, align 8, !tbaa !30
  %66 = getelementptr inbounds nuw %struct.ec_point_st, ptr %65, i32 0, i32 4
  %67 = load ptr, ptr %66, align 8, !tbaa !34
  %68 = load ptr, ptr %8, align 8, !tbaa !21
  %69 = load ptr, ptr %6, align 8, !tbaa !22
  %70 = call i32 %60(ptr noundef %61, ptr noundef %64, ptr noundef %67, ptr noundef %68, ptr noundef %69)
  %71 = icmp ne i32 %70, 0
  br i1 %71, label %72, label %131

72:                                               ; preds = %55
  %73 = load ptr, ptr %4, align 8, !tbaa !3
  %74 = getelementptr inbounds nuw %struct.ec_group_st, ptr %73, i32 0, i32 0
  %75 = load ptr, ptr %74, align 8, !tbaa !26
  %76 = getelementptr inbounds nuw %struct.ec_method_st, ptr %75, i32 0, i32 33
  %77 = load ptr, ptr %76, align 8, !tbaa !38
  %78 = load ptr, ptr %4, align 8, !tbaa !3
  %79 = load ptr, ptr %9, align 8, !tbaa !21
  %80 = load ptr, ptr %8, align 8, !tbaa !21
  %81 = load ptr, ptr %6, align 8, !tbaa !22
  %82 = call i32 %77(ptr noundef %78, ptr noundef %79, ptr noundef %80, ptr noundef %81)
  %83 = icmp ne i32 %82, 0
  br i1 %83, label %84, label %131

84:                                               ; preds = %72
  %85 = load ptr, ptr %4, align 8, !tbaa !3
  %86 = getelementptr inbounds nuw %struct.ec_group_st, ptr %85, i32 0, i32 0
  %87 = load ptr, ptr %86, align 8, !tbaa !26
  %88 = getelementptr inbounds nuw %struct.ec_method_st, ptr %87, i32 0, i32 32
  %89 = load ptr, ptr %88, align 8, !tbaa !39
  %90 = load ptr, ptr %4, align 8, !tbaa !3
  %91 = load ptr, ptr %5, align 8, !tbaa !30
  %92 = getelementptr inbounds nuw %struct.ec_point_st, ptr %91, i32 0, i32 2
  %93 = load ptr, ptr %92, align 8, !tbaa !31
  %94 = load ptr, ptr %5, align 8, !tbaa !30
  %95 = getelementptr inbounds nuw %struct.ec_point_st, ptr %94, i32 0, i32 2
  %96 = load ptr, ptr %95, align 8, !tbaa !31
  %97 = load ptr, ptr %9, align 8, !tbaa !21
  %98 = load ptr, ptr %6, align 8, !tbaa !22
  %99 = call i32 %89(ptr noundef %90, ptr noundef %93, ptr noundef %96, ptr noundef %97, ptr noundef %98)
  %100 = icmp ne i32 %99, 0
  br i1 %100, label %101, label %131

101:                                              ; preds = %84
  %102 = load ptr, ptr %4, align 8, !tbaa !3
  %103 = getelementptr inbounds nuw %struct.ec_group_st, ptr %102, i32 0, i32 0
  %104 = load ptr, ptr %103, align 8, !tbaa !26
  %105 = getelementptr inbounds nuw %struct.ec_method_st, ptr %104, i32 0, i32 32
  %106 = load ptr, ptr %105, align 8, !tbaa !39
  %107 = load ptr, ptr %4, align 8, !tbaa !3
  %108 = load ptr, ptr %9, align 8, !tbaa !21
  %109 = load ptr, ptr %9, align 8, !tbaa !21
  %110 = load ptr, ptr %8, align 8, !tbaa !21
  %111 = load ptr, ptr %6, align 8, !tbaa !22
  %112 = call i32 %106(ptr noundef %107, ptr noundef %108, ptr noundef %109, ptr noundef %110, ptr noundef %111)
  %113 = icmp ne i32 %112, 0
  br i1 %113, label %114, label %131

114:                                              ; preds = %101
  %115 = load ptr, ptr %4, align 8, !tbaa !3
  %116 = getelementptr inbounds nuw %struct.ec_group_st, ptr %115, i32 0, i32 0
  %117 = load ptr, ptr %116, align 8, !tbaa !26
  %118 = getelementptr inbounds nuw %struct.ec_method_st, ptr %117, i32 0, i32 32
  %119 = load ptr, ptr %118, align 8, !tbaa !39
  %120 = load ptr, ptr %4, align 8, !tbaa !3
  %121 = load ptr, ptr %5, align 8, !tbaa !30
  %122 = getelementptr inbounds nuw %struct.ec_point_st, ptr %121, i32 0, i32 3
  %123 = load ptr, ptr %122, align 8, !tbaa !33
  %124 = load ptr, ptr %5, align 8, !tbaa !30
  %125 = getelementptr inbounds nuw %struct.ec_point_st, ptr %124, i32 0, i32 3
  %126 = load ptr, ptr %125, align 8, !tbaa !33
  %127 = load ptr, ptr %9, align 8, !tbaa !21
  %128 = load ptr, ptr %6, align 8, !tbaa !22
  %129 = call i32 %119(ptr noundef %120, ptr noundef %123, ptr noundef %126, ptr noundef %127, ptr noundef %128)
  %130 = icmp ne i32 %129, 0
  br i1 %130, label %132, label %131

131:                                              ; preds = %114, %101, %84, %72, %55, %43
  br label %135

132:                                              ; preds = %114
  %133 = load ptr, ptr %5, align 8, !tbaa !30
  %134 = getelementptr inbounds nuw %struct.ec_point_st, ptr %133, i32 0, i32 5
  store i32 0, ptr %134, align 8, !tbaa !35
  store i32 1, ptr %7, align 4, !tbaa !24
  br label %135

135:                                              ; preds = %132, %131, %30, %17
  %136 = load ptr, ptr %6, align 8, !tbaa !22
  call void @BN_CTX_end(ptr noundef %136)
  %137 = load i32, ptr %7, align 4, !tbaa !24
  call void @llvm.lifetime.end.p0(i64 8, ptr %9) #3
  call void @llvm.lifetime.end.p0(i64 8, ptr %8) #3
  call void @llvm.lifetime.end.p0(i64 4, ptr %7) #3
  ret i32 %137
}