; Function Attrs: nounwind uwtable
define i32 @ossl_ec_GFp_simple_blind_coordinates(ptr noundef %0, ptr noundef captures(none) %1, ptr noundef %2) #1 {
  tail call void @BN_CTX_start(ptr noundef %2) #4
  %4 = tail call ptr @BN_CTX_get(ptr noundef %2) #4
  %5 = tail call ptr @BN_CTX_get(ptr noundef %2) #4
  %6 = icmp eq ptr %5, null
  br i1 %6, label %8, label %.preheader

.preheader:                                       ; preds = %3
  %7 = getelementptr inbounds nuw i8, ptr %0, i64 64
  br label %9

8:                                                ; preds = %3
  tail call void @ERR_new() #4
  tail call void @ERR_set_debug(ptr noundef nonnull @.str, i32 noundef 1441, ptr noundef nonnull @__func__.ossl_ec_GFp_simple_blind_coordinates) #4
  tail call void (i32, i32, ptr, ...) @ERR_set_error(i32 noundef 16, i32 noundef 524291, ptr noundef null) #4
  br label %.loopexit

9:                                                ; preds = %.preheader, %15
  %10 = tail call i32 @ERR_set_mark() #4
  %11 = load ptr, ptr %7, align 8, !tbaa !3
  %12 = tail call i32 @BN_priv_rand_range_ex(ptr noundef %4, ptr noundef %11, i32 noundef 0, ptr noundef %2) #4
  %13 = tail call i32 @ERR_pop_to_mark() #4
  %14 = icmp eq i32 %12, 0
  br i1 %14, label %.loopexit, label %15

15:                                               ; preds = %9
  %16 = tail call i32 @BN_is_zero(ptr noundef %4) #4
  %.not = icmp eq i32 %16, 0
  br i1 %.not, label %17, label %9, !llvm.loop !43

17:                                               ; preds = %15
  %18 = load ptr, ptr %0, align 8, !tbaa !20
  %19 = getelementptr inbounds nuw i8, ptr %18, i64 280
  %20 = load ptr, ptr %19, align 8, !tbaa !21
  %.not48 = icmp eq ptr %20, null
  br i1 %.not48, label %23, label %21

21:                                               ; preds = %17
  %22 = tail call i32 %20(ptr noundef nonnull %0, ptr noundef %4, ptr noundef %4, ptr noundef %2) #4
  %.not49 = icmp eq i32 %22, 0
  br i1 %.not49, label %.loopexit, label %._crit_edge

._crit_edge:                                      ; preds = %21
  %.pre = load ptr, ptr %0, align 8, !tbaa !20
  br label %23

23:                                               ; preds = %._crit_edge, %17
  %24 = phi ptr [ %.pre, %._crit_edge ], [ %18, %17 ]
  %25 = getelementptr inbounds nuw i8, ptr %24, i64 248
  %26 = load ptr, ptr %25, align 8, !tbaa !32
  %27 = getelementptr inbounds nuw i8, ptr %1, i64 32
  %28 = load ptr, ptr %27, align 8, !tbaa !27
  %29 = tail call i32 %26(ptr noundef nonnull %0, ptr noundef %28, ptr noundef %28, ptr noundef %4, ptr noundef %2) #4
  %.not50 = icmp eq i32 %29, 0
  br i1 %.not50, label %.loopexit, label %30

30:                                               ; preds = %23
  %31 = load ptr, ptr %0, align 8, !tbaa !20
  %32 = getelementptr inbounds nuw i8, ptr %31, i64 256
  %33 = load ptr, ptr %32, align 8, !tbaa !31
  %34 = tail call i32 %33(ptr noundef nonnull %0, ptr noundef nonnull %5, ptr noundef %4, ptr noundef %2) #4
  %.not51 = icmp eq i32 %34, 0
  br i1 %.not51, label %.loopexit, label %35

35:                                               ; preds = %30
  %36 = load ptr, ptr %0, align 8, !tbaa !20
  %37 = getelementptr inbounds nuw i8, ptr %36, i64 248
  %38 = load ptr, ptr %37, align 8, !tbaa !32
  %39 = getelementptr inbounds nuw i8, ptr %1, i64 16
  %40 = load ptr, ptr %39, align 8, !tbaa !24
  %41 = tail call i32 %38(ptr noundef nonnull %0, ptr noundef %40, ptr noundef %40, ptr noundef nonnull %5, ptr noundef %2) #4
  %.not52 = icmp eq i32 %41, 0
  br i1 %.not52, label %.loopexit, label %42

42:                                               ; preds = %35
  %43 = load ptr, ptr %0, align 8, !tbaa !20
  %44 = getelementptr inbounds nuw i8, ptr %43, i64 248
  %45 = load ptr, ptr %44, align 8, !tbaa !32
  %46 = tail call i32 %45(ptr noundef nonnull %0, ptr noundef nonnull %5, ptr noundef nonnull %5, ptr noundef %4, ptr noundef %2) #4
  %.not53 = icmp eq i32 %46, 0
  br i1 %.not53, label %.loopexit, label %47

47:                                               ; preds = %42
  %48 = load ptr, ptr %0, align 8, !tbaa !20
  %49 = getelementptr inbounds nuw i8, ptr %48, i64 248
  %50 = load ptr, ptr %49, align 8, !tbaa !32
  %51 = getelementptr inbounds nuw i8, ptr %1, i64 24
  %52 = load ptr, ptr %51, align 8, !tbaa !26
  %53 = tail call i32 %50(ptr noundef nonnull %0, ptr noundef %52, ptr noundef %52, ptr noundef nonnull %5, ptr noundef %2) #4
  %.not54 = icmp eq i32 %53, 0
  br i1 %.not54, label %.loopexit, label %54

54:                                               ; preds = %47
  %55 = getelementptr inbounds nuw i8, ptr %1, i64 40
  store i32 0, ptr %55, align 8, !tbaa !28
  br label %.loopexit

.loopexit:                                        ; preds = %9, %21, %23, %30, %35, %42, %47, %54, %8
  %.0 = phi i32 [ 0, %8 ], [ 1, %54 ], [ %12, %47 ], [ %12, %42 ], [ %12, %35 ], [ %12, %30 ], [ %12, %23 ], [ %12, %21 ], [ 1, %9 ]
  tail call void @BN_CTX_end(ptr noundef %2) #4
  ret i32 %.0
}